; Function Attrs: mustprogress nounwind uwtable
define void @_ZN6json114JsonC2EDn(ptr nocapture noundef nonnull writeonly align 8 dereferenceable(16) %0, ptr nocapture readnone %1) unnamed_addr #1 align 2 personality ptr @__gxx_personality_v0 {
  %3 = load atomic i8, ptr @_ZGVZN6json11L7staticsEvE1s acquire, align 8
  %4 = icmp eq i8 %3, 0
  br i1 %4, label %5, label %_ZN6json11L7staticsEv.exit, !prof !6

5:                                                ; preds = %2
  %6 = tail call i32 @__cxa_guard_acquire(ptr nonnull @_ZGVZN6json11L7staticsEvE1s) #20
  %.not.i = icmp eq i32 %6, 0
  br i1 %.not.i, label %_ZN6json11L7staticsEv.exit, label %7

7:                                                ; preds = %5
  invoke void @_ZN6json117StaticsC2Ev(ptr noundef nonnull align 8 dereferenceable(152) @_ZZN6json11L7staticsEvE1s)
          to label %8 unwind label %.body

8:                                                ; preds = %7
  %9 = tail call i32 @__cxa_atexit(ptr nonnull @_ZN6json117StaticsD2Ev, ptr nonnull @_ZZN6json11L7staticsEvE1s, ptr nonnull @__dso_handle) #20
  tail call void @__cxa_guard_release(ptr nonnull @_ZGVZN6json11L7staticsEvE1s) #20
  br label %_ZN6json11L7staticsEv.exit

.body:                                            ; preds = %7
  %10 = landingpad { ptr, i32 }
          catch ptr null
  tail call void @__cxa_guard_abort(ptr nonnull @_ZGVZN6json11L7staticsEvE1s) #20
  %11 = extractvalue { ptr, i32 } %10, 0
  tail call void @__clang_call_terminate(ptr %11) #21
  unreachable

_ZN6json11L7staticsEv.exit:                       ; preds = %8, %5, %2
  %12 = load ptr, ptr @_ZZN6json11L7staticsEvE1s, align 8
  store ptr %12, ptr %0, align 8
  %13 = getelementptr inbounds i8, ptr %0, i64 8
  %14 = load ptr, ptr getelementptr inbounds (%"struct.json11::Statics", ptr @_ZZN6json11L7staticsEvE1s, i64 0, i32 0, i32 0, i32 1, i32 0), align 8
  store ptr %14, ptr %13, align 8
  %.not.i.i.i = icmp eq ptr %14, null
  br i1 %.not.i.i.i, label %_ZNSt10shared_ptrIN6json119JsonValueEEC2ERKS2_.exit, label %15

15:                                               ; preds = %_ZN6json11L7staticsEv.exit
  %16 = getelementptr inbounds i8, ptr %14, i64 8
  %17 = load i8, ptr @__libc_single_threaded, align 1
  %.not.i.i.i.i = icmp eq i8 %17, 0
  br i1 %.not.i.i.i.i, label %21, label %18

18:                                               ; preds = %15
  %19 = load i32, ptr %16, align 4
  %20 = add nsw i32 %19, 1
  store i32 %20, ptr %16, align 4
  br label %_ZNSt10shared_ptrIN6json119JsonValueEEC2ERKS2_.exit

21:                                               ; preds = %15
  %22 = atomicrmw volatile add ptr %16, i32 1 acq_rel, align 4
  br label %_ZNSt10shared_ptrIN6json119JsonValueEEC2ERKS2_.exit

_ZNSt10shared_ptrIN6json119JsonValueEEC2ERKS2_.exit: ; preds = %_ZN6json11L7staticsEv.exit, %18, %21
  ret void
}